TI ARM Assembler PC v15.12.1 Fri Feb 17 09:56:14 2017

Tools Copyright (c) 1996-2015 Texas Instruments Incorporated
Task_Speakerbuzz.asm                                                 PAGE    1

       1                    ;******************************************************************************
       2                    ;* TI ARM C/C++ Codegen                                       PC v15.12.1.LTS *
       3                    ;* Date/Time created: Fri Feb 17 09:56:14 2017                                *
       4                    ;******************************************************************************
       5                            .compiler_opts --abi=eabi --arm_vmrs_si_workaround=off --code_state=16 --diag_wrap=off --disab
       6 00000000                   .thumb
       7                    
       8                    $C$DW$CU        .dwtag  DW_TAG_compile_unit
       9                            .dwattr $C$DW$CU, DW_AT_name("../Tasks/Task_Speakerbuzz.c")
      10                            .dwattr $C$DW$CU, DW_AT_producer("TI TI ARM C/C++ Codegen PC v15.12.1.LTS Copyright (c) 1996-2
      11                            .dwattr $C$DW$CU, DW_AT_TI_version(0x01)
      12                            .dwattr $C$DW$CU, DW_AT_comp_dir("H:\EECS_388\TI_ARM_Projects\Program_SpeakerBuzz\Debug")
      13                    
      14                    $C$DW$1 .dwtag  DW_TAG_subprogram
      15                            .dwattr $C$DW$1, DW_AT_name("SysCtlPeripheralEnable")
      16                            .dwattr $C$DW$1, DW_AT_TI_symbol_name("SysCtlPeripheralEnable")
      17                            .dwattr $C$DW$1, DW_AT_declaration
      18                            .dwattr $C$DW$1, DW_AT_external
      19                            .dwattr $C$DW$1, DW_AT_decl_file("C:/TI_CodeComposer/StellarisWare-LM3S1968/driverlib/sysctl.h
      20                            .dwattr $C$DW$1, DW_AT_decl_line(0x24d)
      21                            .dwattr $C$DW$1, DW_AT_decl_column(0x0d)
      22                    $C$DW$2 .dwtag  DW_TAG_formal_parameter
      23                            .dwattr $C$DW$2, DW_AT_type(*$C$DW$T$13)
      24                    
      25                            .dwendtag $C$DW$1
      26                    
      27                    
      28                    $C$DW$3 .dwtag  DW_TAG_subprogram
      29                            .dwattr $C$DW$3, DW_AT_name("GPIOPadConfigSet")
      30                            .dwattr $C$DW$3, DW_AT_TI_symbol_name("GPIOPadConfigSet")
      31                            .dwattr $C$DW$3, DW_AT_declaration
      32                            .dwattr $C$DW$3, DW_AT_external
      33                            .dwattr $C$DW$3, DW_AT_decl_file("C:/TI_CodeComposer/StellarisWare-LM3S1968/driverlib/gpio.h")
      34                            .dwattr $C$DW$3, DW_AT_decl_line(0x7f)
      35                            .dwattr $C$DW$3, DW_AT_decl_column(0x0d)
      36                    $C$DW$4 .dwtag  DW_TAG_formal_parameter
      37                            .dwattr $C$DW$4, DW_AT_type(*$C$DW$T$13)
      38                    
      39                    $C$DW$5 .dwtag  DW_TAG_formal_parameter
      40                            .dwattr $C$DW$5, DW_AT_type(*$C$DW$T$6)
      41                    
      42                    $C$DW$6 .dwtag  DW_TAG_formal_parameter
      43                            .dwattr $C$DW$6, DW_AT_type(*$C$DW$T$13)
      44                    
      45                    $C$DW$7 .dwtag  DW_TAG_formal_parameter
      46                            .dwattr $C$DW$7, DW_AT_type(*$C$DW$T$13)
      47                    
      48                            .dwendtag $C$DW$3
      49                    
      50                    
      51                    $C$DW$8 .dwtag  DW_TAG_subprogram
      52                            .dwattr $C$DW$8, DW_AT_name("GPIOPinRead")
      53                            .dwattr $C$DW$8, DW_AT_TI_symbol_name("GPIOPinRead")
      54                            .dwattr $C$DW$8, DW_AT_type(*$C$DW$T$12)
      55                            .dwattr $C$DW$8, DW_AT_declaration
TI ARM Assembler PC v15.12.1 Fri Feb 17 09:56:14 2017

Tools Copyright (c) 1996-2015 Texas Instruments Incorporated
Task_Speakerbuzz.asm                                                 PAGE    2

      56                            .dwattr $C$DW$8, DW_AT_external
      57                            .dwattr $C$DW$8, DW_AT_decl_file("C:/TI_CodeComposer/StellarisWare-LM3S1968/driverlib/gpio.h")
      58                            .dwattr $C$DW$8, DW_AT_decl_line(0x8c)
      59                            .dwattr $C$DW$8, DW_AT_decl_column(0x0d)
      60                    $C$DW$9 .dwtag  DW_TAG_formal_parameter
      61                            .dwattr $C$DW$9, DW_AT_type(*$C$DW$T$13)
      62                    
      63                    $C$DW$10        .dwtag  DW_TAG_formal_parameter
      64                            .dwattr $C$DW$10, DW_AT_type(*$C$DW$T$6)
      65                    
      66                            .dwendtag $C$DW$8
      67                    
      68                    
      69                    $C$DW$11        .dwtag  DW_TAG_subprogram
      70                            .dwattr $C$DW$11, DW_AT_name("GPIOPinWrite")
      71                            .dwattr $C$DW$11, DW_AT_TI_symbol_name("GPIOPinWrite")
      72                            .dwattr $C$DW$11, DW_AT_declaration
      73                            .dwattr $C$DW$11, DW_AT_external
      74                            .dwattr $C$DW$11, DW_AT_decl_file("C:/TI_CodeComposer/StellarisWare-LM3S1968/driverlib/gpio.h"
      75                            .dwattr $C$DW$11, DW_AT_decl_line(0x8d)
      76                            .dwattr $C$DW$11, DW_AT_decl_column(0x0d)
      77                    $C$DW$12        .dwtag  DW_TAG_formal_parameter
      78                            .dwattr $C$DW$12, DW_AT_type(*$C$DW$T$13)
      79                    
      80                    $C$DW$13        .dwtag  DW_TAG_formal_parameter
      81                            .dwattr $C$DW$13, DW_AT_type(*$C$DW$T$6)
      82                    
      83                    $C$DW$14        .dwtag  DW_TAG_formal_parameter
      84                            .dwattr $C$DW$14, DW_AT_type(*$C$DW$T$6)
      85                    
      86                            .dwendtag $C$DW$11
      87                    
      88                    
      89                    $C$DW$15        .dwtag  DW_TAG_subprogram
      90                            .dwattr $C$DW$15, DW_AT_name("GPIOPinTypeGPIOOutput")
      91                            .dwattr $C$DW$15, DW_AT_TI_symbol_name("GPIOPinTypeGPIOOutput")
      92                            .dwattr $C$DW$15, DW_AT_declaration
      93                            .dwattr $C$DW$15, DW_AT_external
      94                            .dwattr $C$DW$15, DW_AT_decl_file("C:/TI_CodeComposer/StellarisWare-LM3S1968/driverlib/gpio.h"
      95                            .dwattr $C$DW$15, DW_AT_decl_line(0x98)
      96                            .dwattr $C$DW$15, DW_AT_decl_column(0x0d)
      97                    $C$DW$16        .dwtag  DW_TAG_formal_parameter
      98                            .dwattr $C$DW$16, DW_AT_type(*$C$DW$T$13)
      99                    
     100                    $C$DW$17        .dwtag  DW_TAG_formal_parameter
     101                            .dwattr $C$DW$17, DW_AT_type(*$C$DW$T$6)
     102                    
     103                            .dwendtag $C$DW$15
     104                    
     105                    $C$DW$18        .dwtag  DW_TAG_variable
     106                            .dwattr $C$DW$18, DW_AT_name("SysTickFrequency_Nbr")
     107                            .dwattr $C$DW$18, DW_AT_TI_symbol_name("SysTickFrequency_Nbr")
     108                            .dwattr $C$DW$18, DW_AT_type(*$C$DW$T$50)
     109                            .dwattr $C$DW$18, DW_AT_declaration
     110                            .dwattr $C$DW$18, DW_AT_external
TI ARM Assembler PC v15.12.1 Fri Feb 17 09:56:14 2017

Tools Copyright (c) 1996-2015 Texas Instruments Incorporated
Task_Speakerbuzz.asm                                                 PAGE    3

     111                            .dwattr $C$DW$18, DW_AT_decl_file("../Tasks/Task_Speakerbuzz.c")
     112                            .dwattr $C$DW$18, DW_AT_decl_line(0x2b)
     113                            .dwattr $C$DW$18, DW_AT_decl_column(0x12)
     114                    
     115                    $C$DW$19        .dwtag  DW_TAG_variable
     116                            .dwattr $C$DW$19, DW_AT_name("SysTickCount_Nbr")
     117                            .dwattr $C$DW$19, DW_AT_TI_symbol_name("SysTickCount_Nbr")
     118                            .dwattr $C$DW$19, DW_AT_type(*$C$DW$T$50)
     119                            .dwattr $C$DW$19, DW_AT_declaration
     120                            .dwattr $C$DW$19, DW_AT_external
     121                            .dwattr $C$DW$19, DW_AT_decl_file("../Tasks/Task_Speakerbuzz.c")
     122                            .dwattr $C$DW$19, DW_AT_decl_line(0x2c)
     123                            .dwattr $C$DW$19, DW_AT_decl_column(0x12)
     124                    
     125 00000000                   .data
     126                            .align  4
     127                            .elfsym Task_Speakerbuzz_NextExecute,SYM_SIZE(4)
     128 00000000           Task_Speakerbuzz_NextExecute:
     129 00000000 00000000          .bits   0,32                    ; Task_Speakerbuzz_NextExecute @ 0
     130                    
     131                    $C$DW$20        .dwtag  DW_TAG_variable
     132                            .dwattr $C$DW$20, DW_AT_name("Task_Speakerbuzz_NextExecute")
     133                            .dwattr $C$DW$20, DW_AT_TI_symbol_name("Task_Speakerbuzz_NextExecute")
     134                            .dwattr $C$DW$20, DW_AT_type(*$C$DW$T$50)
     135                            .dwattr $C$DW$20, DW_AT_location[DW_OP_addr Task_Speakerbuzz_NextExecute]
     136                            .dwattr $C$DW$20, DW_AT_decl_file("../Tasks/Task_Speakerbuzz.c")
     137                            .dwattr $C$DW$20, DW_AT_decl_line(0x36)
     138                            .dwattr $C$DW$20, DW_AT_decl_column(0x11)
     139                    
     140 00000000                   .bss    Task_Speakerbuzz_DeltaExecute,4,4
     141                    $C$DW$21        .dwtag  DW_TAG_variable
     142                            .dwattr $C$DW$21, DW_AT_name("Task_Speakerbuzz_DeltaExecute")
     143                            .dwattr $C$DW$21, DW_AT_TI_symbol_name("Task_Speakerbuzz_DeltaExecute")
     144                            .dwattr $C$DW$21, DW_AT_type(*$C$DW$T$50)
     145                            .dwattr $C$DW$21, DW_AT_location[DW_OP_addr Task_Speakerbuzz_DeltaExecute]
     146                            .dwattr $C$DW$21, DW_AT_decl_file("../Tasks/Task_Speakerbuzz.c")
     147                            .dwattr $C$DW$21, DW_AT_decl_line(0x37)
     148                            .dwattr $C$DW$21, DW_AT_decl_column(0x11)
     149                    
     150 00000004                   .data
     151                            .align  1
     152                            .elfsym Task_Speakerbuzz_Initialized,SYM_SIZE(1)
     153 00000004           Task_Speakerbuzz_Initialized:
     154 00000004 00000000          .bits   0,8                     ; Task_Speakerbuzz_Initialized @ 0
     155                    
     156                    $C$DW$22        .dwtag  DW_TAG_variable
     157                            .dwattr $C$DW$22, DW_AT_name("Task_Speakerbuzz_Initialized")
     158                            .dwattr $C$DW$22, DW_AT_TI_symbol_name("Task_Speakerbuzz_Initialized")
     159                            .dwattr $C$DW$22, DW_AT_type(*$C$DW$T$66)
     160                            .dwattr $C$DW$22, DW_AT_location[DW_OP_addr Task_Speakerbuzz_Initialized]
     161                            .dwattr $C$DW$22, DW_AT_decl_file("../Tasks/Task_Speakerbuzz.c")
     162                            .dwattr $C$DW$22, DW_AT_decl_line(0x38)
     163                            .dwattr $C$DW$22, DW_AT_decl_column(0x0e)
     164                    
     165 00000004                   .bss    switchDelta,4,4
TI ARM Assembler PC v15.12.1 Fri Feb 17 09:56:14 2017

Tools Copyright (c) 1996-2015 Texas Instruments Incorporated
Task_Speakerbuzz.asm                                                 PAGE    4

     166                    $C$DW$23        .dwtag  DW_TAG_variable
     167                            .dwattr $C$DW$23, DW_AT_name("switchDelta")
     168                            .dwattr $C$DW$23, DW_AT_TI_symbol_name("switchDelta")
     169                            .dwattr $C$DW$23, DW_AT_type(*$C$DW$T$50)
     170                            .dwattr $C$DW$23, DW_AT_location[DW_OP_addr switchDelta]
     171                            .dwattr $C$DW$23, DW_AT_decl_file("../Tasks/Task_Speakerbuzz.c")
     172                            .dwattr $C$DW$23, DW_AT_decl_line(0x3a)
     173                            .dwattr $C$DW$23, DW_AT_decl_column(0x11)
     174                    
     175 00000005                   .data
     176                            .align  4
     177                            .elfsym switchExecute,SYM_SIZE(4)
     178 00000008           switchExecute:
     179 00000008 00000000          .bits   0,32                    ; switchExecute @ 0
     180                    
     181                    $C$DW$24        .dwtag  DW_TAG_variable
     182                            .dwattr $C$DW$24, DW_AT_name("switchExecute")
     183                            .dwattr $C$DW$24, DW_AT_TI_symbol_name("switchExecute")
     184                            .dwattr $C$DW$24, DW_AT_type(*$C$DW$T$50)
     185                            .dwattr $C$DW$24, DW_AT_location[DW_OP_addr switchExecute]
     186                            .dwattr $C$DW$24, DW_AT_decl_file("../Tasks/Task_Speakerbuzz.c")
     187                            .dwattr $C$DW$24, DW_AT_decl_line(0x3b)
     188                            .dwattr $C$DW$24, DW_AT_decl_column(0x11)
     189                    
     190 0000000c                   .data
     191                            .align  4
     192                            .elfsym tone,SYM_SIZE(4)
     193 0000000c           tone:
     194 0000000c 00000000          .bits   0,32                    ; tone @ 0
     195                    
     196                    $C$DW$25        .dwtag  DW_TAG_variable
     197                            .dwattr $C$DW$25, DW_AT_name("tone")
     198                            .dwattr $C$DW$25, DW_AT_TI_symbol_name("tone")
     199                            .dwattr $C$DW$25, DW_AT_type(*$C$DW$T$10)
     200                            .dwattr $C$DW$25, DW_AT_location[DW_OP_addr tone]
     201                            .dwattr $C$DW$25, DW_AT_decl_file("../Tasks/Task_Speakerbuzz.c")
     202                            .dwattr $C$DW$25, DW_AT_decl_line(0x3c)
     203                            .dwattr $C$DW$25, DW_AT_decl_column(0x0c)
     204                    
     205 00000010                   .data
     206                            .align  4
     207                            .elfsym HighNote,SYM_SIZE(4)
     208 00000010           HighNote:
     209 00000010 00000000          .bits   0,32                    ; HighNote @ 0
     210                    
     211                    $C$DW$26        .dwtag  DW_TAG_variable
     212                            .dwattr $C$DW$26, DW_AT_name("HighNote")
     213                            .dwattr $C$DW$26, DW_AT_TI_symbol_name("HighNote")
     214                            .dwattr $C$DW$26, DW_AT_type(*$C$DW$T$10)
     215                            .dwattr $C$DW$26, DW_AT_location[DW_OP_addr HighNote]
     216                            .dwattr $C$DW$26, DW_AT_decl_file("../Tasks/Task_Speakerbuzz.c")
     217                            .dwattr $C$DW$26, DW_AT_decl_line(0x3d)
     218                            .dwattr $C$DW$26, DW_AT_decl_column(0x0c)
     219                    
     220 00000000                   .sect   ".data:intro", RW
TI ARM Assembler PC v15.12.1 Fri Feb 17 09:56:14 2017

Tools Copyright (c) 1996-2015 Texas Instruments Incorporated
Task_Speakerbuzz.asm                                                 PAGE    5

     221                            .clink
     222                            .align  4
     223                            .elfsym intro,SYM_SIZE(56)
     224 00000000           intro:
     225 00000000 00000294          .bits   660,32                  ; intro[0] @ 0
     226 00000004 00000294          .bits   660,32                  ; intro[1] @ 32
     227 00000008 00000000          .bits   0,32                    ; intro[2] @ 64
     228 0000000c 00000294          .bits   660,32                  ; intro[3] @ 96
     229 00000010 00000000          .bits   0,32                    ; intro[4] @ 128
     230 00000014 000001FE          .bits   510,32                  ; intro[5] @ 160
     231 00000018 00000294          .bits   660,32                  ; intro[6] @ 192
     232 0000001c 00000000          .bits   0,32                    ; intro[7] @ 224
     233 00000020 00000302          .bits   770,32                  ; intro[8] @ 256
     234 00000024 00000000          .bits   0,32                    ; intro[9] @ 288
     235 00000028 00000000          .bits   0,32                    ; intro[10] @ 320
     236 0000002c 00000000          .bits   0,32                    ; intro[11] @ 352
     237 00000030 0000017C          .bits   380,32                  ; intro[12] @ 384
     238 00000034 00000000          .bits   0,32                    ; intro[13] @ 416
     239                    
     240                    $C$DW$27        .dwtag  DW_TAG_variable
     241                            .dwattr $C$DW$27, DW_AT_name("intro")
     242                            .dwattr $C$DW$27, DW_AT_TI_symbol_name("intro")
     243                            .dwattr $C$DW$27, DW_AT_type(*$C$DW$T$39)
     244                            .dwattr $C$DW$27, DW_AT_location[DW_OP_addr intro]
     245                            .dwattr $C$DW$27, DW_AT_decl_file("../Tasks/Task_Speakerbuzz.c")
     246                            .dwattr $C$DW$27, DW_AT_decl_line(0x3e)
     247                            .dwattr $C$DW$27, DW_AT_decl_column(0x0c)
     248                    
     249 00000000                   .sect   ".data:verse1", RW
     250                            .clink
     251                            .align  4
     252                            .elfsym verse1,SYM_SIZE(140)
     253 00000000           verse1:
     254 00000000 00000000          .bits   0,32                    ; verse1[0] @ 0
     255 00000004 00000000          .bits   0,32                    ; verse1[1] @ 32
     256 00000008 00000000          .bits   0,32                    ; verse1[2] @ 64
     257 0000000c 000001FE          .bits   510,32                  ; verse1[3] @ 96
     258 00000010 00000000          .bits   0,32                    ; verse1[4] @ 128
     259 00000014 00000000          .bits   0,32                    ; verse1[5] @ 160
     260 00000018 0000017C          .bits   380,32                  ; verse1[6] @ 192
     261 0000001c 00000000          .bits   0,32                    ; verse1[7] @ 224
     262 00000020 00000000          .bits   0,32                    ; verse1[8] @ 256
     263 00000024 00000140          .bits   320,32                  ; verse1[9] @ 288
     264 00000028 00000000          .bits   0,32                    ; verse1[10] @ 320
     265 0000002c 00000000          .bits   0,32                    ; verse1[11] @ 352
     266 00000030 00000000          .bits   0,32                    ; verse1[12] @ 384
     267 00000034 000001B8          .bits   440,32                  ; verse1[13] @ 416
     268 00000038 00000000          .bits   0,32                    ; verse1[14] @ 448
     269 0000003c 000001E0          .bits   480,32                  ; verse1[15] @ 480
     270 00000040 00000000          .bits   0,32                    ; verse1[16] @ 512
     271 00000044 000001C2          .bits   450,32                  ; verse1[17] @ 544
     272 00000048 000001AE          .bits   430,32                  ; verse1[18] @ 576
     273 0000004c 00000000          .bits   0,32                    ; verse1[19] @ 608
     274 00000050 0000017C          .bits   380,32                  ; verse1[20] @ 640
     275 00000054 00000294          .bits   660,32                  ; verse1[21] @ 672
TI ARM Assembler PC v15.12.1 Fri Feb 17 09:56:14 2017

Tools Copyright (c) 1996-2015 Texas Instruments Incorporated
Task_Speakerbuzz.asm                                                 PAGE    6

     276 00000058 000002F8          .bits   760,32                  ; verse1[22] @ 704
     277 0000005c 0000035C          .bits   860,32                  ; verse1[23] @ 736
     278 00000060 00000000          .bits   0,32                    ; verse1[24] @ 768
     279 00000064 000002BC          .bits   700,32                  ; verse1[25] @ 800
     280 00000068 000002F8          .bits   760,32                  ; verse1[26] @ 832
     281 0000006c 00000000          .bits   0,32                    ; verse1[27] @ 864
     282 00000070 00000294          .bits   660,32                  ; verse1[28] @ 896
     283 00000074 00000000          .bits   0,32                    ; verse1[29] @ 928
     284 00000078 00000208          .bits   520,32                  ; verse1[30] @ 960
     285 0000007c 00000244          .bits   580,32                  ; verse1[31] @ 992
     286 00000080 000001E0          .bits   480,32                  ; verse1[32] @ 1024
     287 00000084 00000000          .bits   0,32                    ; verse1[33] @ 1056
     288 00000088 00000000          .bits   0,32                    ; verse1[34] @ 1088
     289                    
     290                    $C$DW$28        .dwtag  DW_TAG_variable
     291                            .dwattr $C$DW$28, DW_AT_name("verse1")
     292                            .dwattr $C$DW$28, DW_AT_TI_symbol_name("verse1")
     293                            .dwattr $C$DW$28, DW_AT_type(*$C$DW$T$40)
     294                            .dwattr $C$DW$28, DW_AT_location[DW_OP_addr verse1]
     295                            .dwattr $C$DW$28, DW_AT_decl_file("../Tasks/Task_Speakerbuzz.c")
     296                            .dwattr $C$DW$28, DW_AT_decl_line(0x3f)
     297                            .dwattr $C$DW$28, DW_AT_decl_column(0x0c)
     298                    
     299                    ;       C:\TI_CodeComposer\ccsv6\tools\compiler\ti-cgt-arm_15.12.1.LTS\bin\armacpia.exe -@C:\\Users\\a
     300 00000000                   .sect   ".text"
     301                            .clink
     302                            .thumbfunc Task_Speakerbuzz
     303 00000000                   .thumb
     304                            .global Task_Speakerbuzz
     305                    
     306                    $C$DW$29        .dwtag  DW_TAG_subprogram
     307                            .dwattr $C$DW$29, DW_AT_name("Task_Speakerbuzz")
     308                            .dwattr $C$DW$29, DW_AT_low_pc(Task_Speakerbuzz)
     309                            .dwattr $C$DW$29, DW_AT_high_pc(0x00)
     310                            .dwattr $C$DW$29, DW_AT_TI_symbol_name("Task_Speakerbuzz")
     311                            .dwattr $C$DW$29, DW_AT_external
     312                            .dwattr $C$DW$29, DW_AT_TI_begin_file("../Tasks/Task_Speakerbuzz.c")
     313                            .dwattr $C$DW$29, DW_AT_TI_begin_line(0x41)
     314                            .dwattr $C$DW$29, DW_AT_TI_begin_column(0x0d)
     315                            .dwattr $C$DW$29, DW_AT_decl_file("../Tasks/Task_Speakerbuzz.c")
     316                            .dwattr $C$DW$29, DW_AT_decl_line(0x41)
     317                            .dwattr $C$DW$29, DW_AT_decl_column(0x0d)
     318                            .dwattr $C$DW$29, DW_AT_TI_max_frame_size(0x08)
     319                            .dwpsn  file "../Tasks/Task_Speakerbuzz.c",line 65,column 32,is_stmt,address Task_Speakerbuzz,
     320                    
     321                            .dwfde $C$DW$CIE, Task_Speakerbuzz
     322                    
     323                    ;*****************************************************************************
     324                    ;* FUNCTION NAME: Task_Speakerbuzz                                           *
     325                    ;*                                                                           *
     326                    ;*   Regs Modified     : A1,A2,A3,A4,V9,SP,LR,SR                             *
     327                    ;*   Regs Used         : A1,A2,A3,A4,V9,SP,LR,SR                             *
     328                    ;*   Local Frame Size  : 0 Args + 4 Auto + 4 Save = 8 byte                   *
     329                    ;*****************************************************************************
     330 00000000           Task_Speakerbuzz:
TI ARM Assembler PC v15.12.1 Fri Feb 17 09:56:14 2017

Tools Copyright (c) 1996-2015 Texas Instruments Incorporated
Task_Speakerbuzz.asm                                                 PAGE    7

     331                    ;* --------------------------------------------------------------------------*
     332                            .dwcfi  cfa_offset, 0
     333 00000000 B508              PUSH      {A4, LR}              ; [DPU_3_PIPE]  ; [ORIG 16-BIT INS]
     334                            .dwcfi  cfa_offset, 8
     335                            .dwcfi  save_reg_to_mem, 14, -4
     336                            .dwcfi  save_reg_to_mem, 3, -8
     337                    $C$DW$30        .dwtag  DW_TAG_variable
     338                            .dwattr $C$DW$30, DW_AT_name("Speakerbuzz_Data")
     339                            .dwattr $C$DW$30, DW_AT_TI_symbol_name("Speakerbuzz_Data")
     340                            .dwattr $C$DW$30, DW_AT_type(*$C$DW$T$50)
     341                            .dwattr $C$DW$30, DW_AT_location[DW_OP_breg13 0]
     342                    
     343                            .dwpsn  file "../Tasks/Task_Speakerbuzz.c",line 67,column 28,is_stmt,isa 1
     344 00000002 2000              MOVS      A1, #0                ; [DPU_3_PIPE] |67|  ; [ORIG 16-BIT INS]
     345 00000004 9000              STR       A1, [SP, #0]          ; [DPU_3_PIPE] |67|  ; [ORIG 16-BIT INS]
     346                            .dwpsn  file "../Tasks/Task_Speakerbuzz.c",line 69,column 2,is_stmt,isa 1
     347 00000006 484F              LDR       A1, $C$CON1           ; [DPU_3_PIPE] |69|  ; [ORIG 16-BIT INS]
     348 00000008 7800              LDRB      A1, [A1, #0]          ; [DPU_3_PIPE] |69|  ; [ORIG 16-BIT INS]
     349 0000000a 2800              CMP       A1, #0                ; [DPU_3_PIPE] |69|  ; [ORIG 16-BIT INS]
     350 0000000c D134              BNE       ||$C$L1||             ; [DPU_3_PIPE] |69|  ; [ORIG 16-BIT INS]
     351                            ; BRANCHCC OCCURS {||$C$L1||}    ; [] |69| 
     352                    ;* --------------------------------------------------------------------------*
     353                            .dwpsn  file "../Tasks/Task_Speakerbuzz.c",line 73,column 6,is_stmt,isa 1
     354 0000000e 484E              LDR       A1, $C$CON2           ; [DPU_3_PIPE] |73|  ; [ORIG 16-BIT INS]
     355                    $C$DW$31        .dwtag  DW_TAG_TI_branch
     356                            .dwattr $C$DW$31, DW_AT_low_pc(0x00)
     357                            .dwattr $C$DW$31, DW_AT_name("SysCtlPeripheralEnable")
     358                            .dwattr $C$DW$31, DW_AT_TI_call
     359                    
     360 00000010 FFFEF7FF!         BL        SysCtlPeripheralEnable ; [DPU_3_PIPE] |73|  ; [KEEP 32-BIT INS]
     361                            ; CALL OCCURS {SysCtlPeripheralEnable }  ; [] |73| 
     362                            .dwpsn  file "../Tasks/Task_Speakerbuzz.c",line 80,column 6,is_stmt,isa 1
     363 00000014 484D              LDR       A1, $C$CON3           ; [DPU_3_PIPE] |80|  ; [ORIG 16-BIT INS]
     364 00000016 2103              MOVS      A2, #3                ; [DPU_3_PIPE] |80|  ; [ORIG 16-BIT INS]
     365                    $C$DW$32        .dwtag  DW_TAG_TI_branch
     366                            .dwattr $C$DW$32, DW_AT_low_pc(0x00)
     367                            .dwattr $C$DW$32, DW_AT_name("GPIOPinTypeGPIOOutput")
     368                            .dwattr $C$DW$32, DW_AT_TI_call
     369                    
     370 00000018 FFFEF7FF!         BL        GPIOPinTypeGPIOOutput ; [DPU_3_PIPE] |80|  ; [KEEP 32-BIT INS]
     371                            ; CALL OCCURS {GPIOPinTypeGPIOOutput }  ; [] |80| 
     372                            .dwpsn  file "../Tasks/Task_Speakerbuzz.c",line 81,column 6,is_stmt,isa 1
     373 0000001c 484B              LDR       A1, $C$CON3           ; [DPU_3_PIPE] |81|  ; [ORIG 16-BIT INS]
     374 0000001e 2103              MOVS      A2, #3                ; [DPU_3_PIPE] |81|  ; [ORIG 16-BIT INS]
     375 00000020 2201              MOVS      A3, #1                ; [DPU_3_PIPE] |81|  ; [ORIG 16-BIT INS]
     376 00000022 2308              MOVS      A4, #8                ; [DPU_3_PIPE] |81|  ; [ORIG 16-BIT INS]
     377                    $C$DW$33        .dwtag  DW_TAG_TI_branch
     378                            .dwattr $C$DW$33, DW_AT_low_pc(0x00)
     379                            .dwattr $C$DW$33, DW_AT_name("GPIOPadConfigSet")
     380                            .dwattr $C$DW$33, DW_AT_TI_call
     381                    
     382 00000024 FFFEF7FF!         BL        GPIOPadConfigSet      ; [DPU_3_PIPE] |81|  ; [KEEP 32-BIT INS]
     383                            ; CALL OCCURS {GPIOPadConfigSet }  ; [] |81| 
     384                            .dwpsn  file "../Tasks/Task_Speakerbuzz.c",line 83,column 6,is_stmt,isa 1
     385 00000028 4848              LDR       A1, $C$CON3           ; [DPU_3_PIPE] |83|  ; [ORIG 16-BIT INS]
TI ARM Assembler PC v15.12.1 Fri Feb 17 09:56:14 2017

Tools Copyright (c) 1996-2015 Texas Instruments Incorporated
Task_Speakerbuzz.asm                                                 PAGE    8

     386 0000002a 2103              MOVS      A2, #3                ; [DPU_3_PIPE] |83|  ; [ORIG 16-BIT INS]
     387 0000002c 2201              MOVS      A3, #1                ; [DPU_3_PIPE] |83|  ; [ORIG 16-BIT INS]
     388                    $C$DW$34        .dwtag  DW_TAG_TI_branch
     389                            .dwattr $C$DW$34, DW_AT_low_pc(0x00)
     390                            .dwattr $C$DW$34, DW_AT_name("GPIOPinWrite")
     391                            .dwattr $C$DW$34, DW_AT_TI_call
     392                    
     393 0000002e FFFEF7FF!         BL        GPIOPinWrite          ; [DPU_3_PIPE] |83|  ; [KEEP 32-BIT INS]
     394                            ; CALL OCCURS {GPIOPinWrite }    ; [] |83| 
     395                            .dwpsn  file "../Tasks/Task_Speakerbuzz.c",line 91,column 4,is_stmt,isa 1
     396 00000032 4848              LDR       A1, $C$CON5           ; [DPU_3_PIPE] |91|  ; [ORIG 16-BIT INS]
     397 00000034 4946              LDR       A2, $C$CON4           ; [DPU_3_PIPE] |91|  ; [ORIG 16-BIT INS]
     398 00000036 6800              LDR       A1, [A1, #0]          ; [DPU_3_PIPE] |91|  ; [ORIG 16-BIT INS]
     399 00000038 725CF44F          MOV       A3, #880              ; [DPU_3_PIPE] |91|  ; [KEEP 32-BIT INS]
     400 0000003c F0F2FBB0          UDIV      A1, A1, A3            ; [DPU_3_PIPE] |91|  ; [KEEP 32-BIT INS]
     401 00000040 6008              STR       A1, [A2, #0]          ; [DPU_3_PIPE] |91|  ; [ORIG 16-BIT INS]
     402                            .dwpsn  file "../Tasks/Task_Speakerbuzz.c",line 92,column 4,is_stmt,isa 1
     403 00000042 4946              LDR       A2, $C$CON7           ; [DPU_3_PIPE] |92|  ; [ORIG 16-BIT INS]
     404 00000044 4842              LDR       A1, $C$CON4           ; [DPU_3_PIPE] |92|  ; [ORIG 16-BIT INS]
     405 00000046 680A              LDR       A3, [A2, #0]          ; [DPU_3_PIPE] |92|  ; [ORIG 16-BIT INS]
     406 00000048 6800              LDR       A1, [A1, #0]          ; [DPU_3_PIPE] |92|  ; [ORIG 16-BIT INS]
     407 0000004a 4943              LDR       A2, $C$CON6           ; [DPU_3_PIPE] |92|  ; [ORIG 16-BIT INS]
     408 0000004c 1880              ADDS      A1, A1, A3            ; [DPU_3_PIPE] |92|  ; [ORIG 16-BIT INS]
     409 0000004e 6008              STR       A1, [A2, #0]          ; [DPU_3_PIPE] |92|  ; [ORIG 16-BIT INS]
     410                            .dwpsn  file "../Tasks/Task_Speakerbuzz.c",line 93,column 4,is_stmt,isa 1
     411 00000050 4840              LDR       A1, $C$CON5           ; [DPU_3_PIPE] |93|  ; [ORIG 16-BIT INS]
     412 00000052 4943              LDR       A2, $C$CON8           ; [DPU_3_PIPE] |93|  ; [ORIG 16-BIT INS]
     413 00000054 6802              LDR       A3, [A1, #0]          ; [DPU_3_PIPE] |93|  ; [ORIG 16-BIT INS]
     414 00000056 737AF44F          MOV       A4, #1000             ; [DPU_3_PIPE] |93|  ; [KEEP 32-BIT INS]
     415 0000005a 20FA              MOVS      A1, #250              ; [DPU_3_PIPE] |93|  ; [ORIG 16-BIT INS]
     416 0000005c 4350              MULS      A1, A1, A3            ; [DPU_3_PIPE] |93|  ; [ORIG 16-BIT INS]
     417 0000005e F0F3FBB0          UDIV      A1, A1, A4            ; [DPU_3_PIPE] |93|  ; [KEEP 32-BIT INS]
     418 00000062 6008              STR       A1, [A2, #0]          ; [DPU_3_PIPE] |93|  ; [ORIG 16-BIT INS]
     419                            .dwpsn  file "../Tasks/Task_Speakerbuzz.c",line 94,column 4,is_stmt,isa 1
     420 00000064 493D              LDR       A2, $C$CON7           ; [DPU_3_PIPE] |94|  ; [ORIG 16-BIT INS]
     421 00000066 483E              LDR       A1, $C$CON8           ; [DPU_3_PIPE] |94|  ; [ORIG 16-BIT INS]
     422 00000068 680A              LDR       A3, [A2, #0]          ; [DPU_3_PIPE] |94|  ; [ORIG 16-BIT INS]
     423 0000006a 6800              LDR       A1, [A1, #0]          ; [DPU_3_PIPE] |94|  ; [ORIG 16-BIT INS]
     424 0000006c 493D              LDR       A2, $C$CON9           ; [DPU_3_PIPE] |94|  ; [ORIG 16-BIT INS]
     425 0000006e 1880              ADDS      A1, A1, A3            ; [DPU_3_PIPE] |94|  ; [ORIG 16-BIT INS]
     426 00000070 6008              STR       A1, [A2, #0]          ; [DPU_3_PIPE] |94|  ; [ORIG 16-BIT INS]
     427                            .dwpsn  file "../Tasks/Task_Speakerbuzz.c",line 100,column 3,is_stmt,isa 1
     428 00000072 4934              LDR       A2, $C$CON1           ; [DPU_3_PIPE] |100|  ; [ORIG 16-BIT INS]
     429 00000074 2001              MOVS      A1, #1                ; [DPU_3_PIPE] |100|  ; [ORIG 16-BIT INS]
     430 00000076 7008              STRB      A1, [A2, #0]          ; [DPU_3_PIPE] |100|  ; [ORIG 16-BIT INS]
     431                    ;* --------------------------------------------------------------------------*
     432 00000078           ||$C$L1||:    
     433                            .dwpsn  file "../Tasks/Task_Speakerbuzz.c",line 109,column 2,is_stmt,isa 1
     434 00000078 483A              LDR       A1, $C$CON9           ; [DPU_3_PIPE] |109|  ; [ORIG 16-BIT INS]
     435 0000007a 4938              LDR       A2, $C$CON7           ; [DPU_3_PIPE] |109|  ; [ORIG 16-BIT INS]
     436 0000007c 6800              LDR       A1, [A1, #0]          ; [DPU_3_PIPE] |109|  ; [ORIG 16-BIT INS]
     437 0000007e 6809              LDR       A2, [A2, #0]          ; [DPU_3_PIPE] |109|  ; [ORIG 16-BIT INS]
     438 00000080 4288              CMP       A1, A2                ; [DPU_3_PIPE] |109|  ; [ORIG 16-BIT INS]
     439 00000082 D238              BCS       ||$C$L5||             ; [DPU_3_PIPE] |109|  ; [ORIG 16-BIT INS]
     440                            ; BRANCHCC OCCURS {||$C$L5||}    ; [] |109| 
TI ARM Assembler PC v15.12.1 Fri Feb 17 09:56:14 2017

Tools Copyright (c) 1996-2015 Texas Instruments Incorporated
Task_Speakerbuzz.asm                                                 PAGE    9

     441                    ;* --------------------------------------------------------------------------*
     442                            .dwpsn  file "../Tasks/Task_Speakerbuzz.c",line 110,column 3,is_stmt,isa 1
     443 00000084 4838              LDR       A1, $C$CON10          ; [DPU_3_PIPE] |110|  ; [ORIG 16-BIT INS]
     444 00000086 6800              LDR       A1, [A1, #0]          ; [DPU_3_PIPE] |110|  ; [ORIG 16-BIT INS]
     445 00000088 2800              CMP       A1, #0                ; [DPU_3_PIPE] |110|  ; [ORIG 16-BIT INS]
     446 0000008a D40F              BMI       ||$C$L2||             ; [DPU_3_PIPE] |110|  ; [ORIG 16-BIT INS]
     447                            ; BRANCHCC OCCURS {||$C$L2||}    ; [] |110| 
     448                    ;* --------------------------------------------------------------------------*
     449 0000008c 4836              LDR       A1, $C$CON10          ; [DPU_3_PIPE] |110|  ; [ORIG 16-BIT INS]
     450 0000008e 6800              LDR       A1, [A1, #0]          ; [DPU_3_PIPE] |110|  ; [ORIG 16-BIT INS]
     451 00000090 280F              CMP       A1, #15               ; [DPU_3_PIPE] |110|  ; [ORIG 16-BIT INS]
     452 00000092 DA0B              BGE       ||$C$L2||             ; [DPU_3_PIPE] |110|  ; [ORIG 16-BIT INS]
     453                            ; BRANCHCC OCCURS {||$C$L2||}    ; [] |110| 
     454                    ;* --------------------------------------------------------------------------*
     455                            .dwpsn  file "../Tasks/Task_Speakerbuzz.c",line 111,column 4,is_stmt,isa 1
     456 00000094 4934              LDR       A2, $C$CON10          ; [DPU_3_PIPE] |111|  ; [ORIG 16-BIT INS]
     457 00000096 6808              LDR       A1, [A2, #0]          ; [DPU_3_PIPE] |111|  ; [ORIG 16-BIT INS]
     458 00000098 1C40              ADDS      A1, A1, #1            ; [DPU_3_PIPE] |111|  ; [ORIG 16-BIT INS]
     459 0000009a 6008              STR       A1, [A2, #0]          ; [DPU_3_PIPE] |111|  ; [ORIG 16-BIT INS]
     460                            .dwpsn  file "../Tasks/Task_Speakerbuzz.c",line 112,column 4,is_stmt,isa 1
     461 0000009c 4832              LDR       A1, $C$CON10          ; [DPU_3_PIPE] |112|  ; [ORIG 16-BIT INS]
     462 0000009e 4A34              LDR       A3, $C$CON12          ; [DPU_3_PIPE] |112|  ; [ORIG 16-BIT INS]
     463 000000a0 6800              LDR       A1, [A1, #0]          ; [DPU_3_PIPE] |112|  ; [ORIG 16-BIT INS]
     464 000000a2 4932              LDR       A2, $C$CON11          ; [DPU_3_PIPE] |112|  ; [ORIG 16-BIT INS]
     465 000000a4 0020F852          LDR       A1, [A3, +A1, LSL #2] ; [DPU_3_PIPE] |112|  ; [KEEP 32-BIT INS]
     466 000000a8 6008              STR       A1, [A2, #0]          ; [DPU_3_PIPE] |112|  ; [ORIG 16-BIT INS]
     467                            .dwpsn  file "../Tasks/Task_Speakerbuzz.c",line 113,column 3,is_stmt,isa 1
     468 000000aa E01D              B         ||$C$L4||             ; [DPU_3_PIPE] |113|  ; [ORIG 16-BIT INS]
     469                            ; BRANCH OCCURS {||$C$L4||}      ; [] |113| 
     470                    ;* --------------------------------------------------------------------------*
     471 000000ac           ||$C$L2||:    
     472                            .dwpsn  file "../Tasks/Task_Speakerbuzz.c",line 113,column 9,is_stmt,isa 1
     473 000000ac 482E              LDR       A1, $C$CON10          ; [DPU_3_PIPE] |113|  ; [ORIG 16-BIT INS]
     474 000000ae 6800              LDR       A1, [A1, #0]          ; [DPU_3_PIPE] |113|  ; [ORIG 16-BIT INS]
     475 000000b0 280F              CMP       A1, #15               ; [DPU_3_PIPE] |113|  ; [ORIG 16-BIT INS]
     476 000000b2 DB0F              BLT       ||$C$L3||             ; [DPU_3_PIPE] |113|  ; [ORIG 16-BIT INS]
     477                            ; BRANCHCC OCCURS {||$C$L3||}    ; [] |113| 
     478                    ;* --------------------------------------------------------------------------*
     479 000000b4 482C              LDR       A1, $C$CON10          ; [DPU_3_PIPE] |113|  ; [ORIG 16-BIT INS]
     480 000000b6 6800              LDR       A1, [A1, #0]          ; [DPU_3_PIPE] |113|  ; [ORIG 16-BIT INS]
     481 000000b8 2831              CMP       A1, #49               ; [DPU_3_PIPE] |113|  ; [ORIG 16-BIT INS]
     482 000000ba DC0B              BGT       ||$C$L3||             ; [DPU_3_PIPE] |113|  ; [ORIG 16-BIT INS]
     483                            ; BRANCHCC OCCURS {||$C$L3||}    ; [] |113| 
     484                    ;* --------------------------------------------------------------------------*
     485                            .dwpsn  file "../Tasks/Task_Speakerbuzz.c",line 114,column 4,is_stmt,isa 1
     486 000000bc 492A              LDR       A2, $C$CON10          ; [DPU_3_PIPE] |114|  ; [ORIG 16-BIT INS]
     487 000000be 6808              LDR       A1, [A2, #0]          ; [DPU_3_PIPE] |114|  ; [ORIG 16-BIT INS]
     488 000000c0 1C40              ADDS      A1, A1, #1            ; [DPU_3_PIPE] |114|  ; [ORIG 16-BIT INS]
     489 000000c2 6008              STR       A1, [A2, #0]          ; [DPU_3_PIPE] |114|  ; [ORIG 16-BIT INS]
     490                            .dwpsn  file "../Tasks/Task_Speakerbuzz.c",line 115,column 4,is_stmt,isa 1
     491 000000c4 4828              LDR       A1, $C$CON10          ; [DPU_3_PIPE] |115|  ; [ORIG 16-BIT INS]
     492 000000c6 4A2B              LDR       A3, $C$CON13          ; [DPU_3_PIPE] |115|  ; [ORIG 16-BIT INS]
     493 000000c8 6800              LDR       A1, [A1, #0]          ; [DPU_3_PIPE] |115|  ; [ORIG 16-BIT INS]
     494 000000ca 4928              LDR       A2, $C$CON11          ; [DPU_3_PIPE] |115|  ; [ORIG 16-BIT INS]
     495 000000cc 0020F852          LDR       A1, [A3, +A1, LSL #2] ; [DPU_3_PIPE] |115|  ; [KEEP 32-BIT INS]
TI ARM Assembler PC v15.12.1 Fri Feb 17 09:56:14 2017

Tools Copyright (c) 1996-2015 Texas Instruments Incorporated
Task_Speakerbuzz.asm                                                 PAGE   10

     496 000000d0 6008              STR       A1, [A2, #0]          ; [DPU_3_PIPE] |115|  ; [ORIG 16-BIT INS]
     497                            .dwpsn  file "../Tasks/Task_Speakerbuzz.c",line 116,column 3,is_stmt,isa 1
     498 000000d2 E009              B         ||$C$L4||             ; [DPU_3_PIPE] |116|  ; [ORIG 16-BIT INS]
     499                            ; BRANCH OCCURS {||$C$L4||}      ; [] |116| 
     500                    ;* --------------------------------------------------------------------------*
     501 000000d4           ||$C$L3||:    
     502                            .dwpsn  file "../Tasks/Task_Speakerbuzz.c",line 117,column 4,is_stmt,isa 1
     503 000000d4 4924              LDR       A2, $C$CON10          ; [DPU_3_PIPE] |117|  ; [ORIG 16-BIT INS]
     504 000000d6 2000              MOVS      A1, #0                ; [DPU_3_PIPE] |117|  ; [ORIG 16-BIT INS]
     505 000000d8 6008              STR       A1, [A2, #0]          ; [DPU_3_PIPE] |117|  ; [ORIG 16-BIT INS]
     506                            .dwpsn  file "../Tasks/Task_Speakerbuzz.c",line 118,column 4,is_stmt,isa 1
     507 000000da 4823              LDR       A1, $C$CON10          ; [DPU_3_PIPE] |118|  ; [ORIG 16-BIT INS]
     508 000000dc 4A24              LDR       A3, $C$CON12          ; [DPU_3_PIPE] |118|  ; [ORIG 16-BIT INS]
     509 000000de 6800              LDR       A1, [A1, #0]          ; [DPU_3_PIPE] |118|  ; [ORIG 16-BIT INS]
     510 000000e0 4922              LDR       A2, $C$CON11          ; [DPU_3_PIPE] |118|  ; [ORIG 16-BIT INS]
     511 000000e2 0020F852          LDR       A1, [A3, +A1, LSL #2] ; [DPU_3_PIPE] |118|  ; [KEEP 32-BIT INS]
     512 000000e6 6008              STR       A1, [A2, #0]          ; [DPU_3_PIPE] |118|  ; [ORIG 16-BIT INS]
     513                    ;* --------------------------------------------------------------------------*
     514 000000e8           ||$C$L4||:    
     515                            .dwpsn  file "../Tasks/Task_Speakerbuzz.c",line 120,column 3,is_stmt,isa 1
     516 000000e8 491C              LDR       A2, $C$CON7           ; [DPU_3_PIPE] |120|  ; [ORIG 16-BIT INS]
     517 000000ea 481D              LDR       A1, $C$CON8           ; [DPU_3_PIPE] |120|  ; [ORIG 16-BIT INS]
     518 000000ec 680A              LDR       A3, [A2, #0]          ; [DPU_3_PIPE] |120|  ; [ORIG 16-BIT INS]
     519 000000ee 6800              LDR       A1, [A1, #0]          ; [DPU_3_PIPE] |120|  ; [ORIG 16-BIT INS]
     520 000000f0 491C              LDR       A2, $C$CON9           ; [DPU_3_PIPE] |120|  ; [ORIG 16-BIT INS]
     521 000000f2 1880              ADDS      A1, A1, A3            ; [DPU_3_PIPE] |120|  ; [ORIG 16-BIT INS]
     522 000000f4 6008              STR       A1, [A2, #0]          ; [DPU_3_PIPE] |120|  ; [ORIG 16-BIT INS]
     523                    ;* --------------------------------------------------------------------------*
     524 000000f6           ||$C$L5||:    
     525                            .dwpsn  file "../Tasks/Task_Speakerbuzz.c",line 122,column 2,is_stmt,isa 1
     526 000000f6 4818              LDR       A1, $C$CON6           ; [DPU_3_PIPE] |122|  ; [ORIG 16-BIT INS]
     527 000000f8 4918              LDR       A2, $C$CON7           ; [DPU_3_PIPE] |122|  ; [ORIG 16-BIT INS]
     528 000000fa 6800              LDR       A1, [A1, #0]          ; [DPU_3_PIPE] |122|  ; [ORIG 16-BIT INS]
     529 000000fc 6809              LDR       A2, [A2, #0]          ; [DPU_3_PIPE] |122|  ; [ORIG 16-BIT INS]
     530 000000fe 4288              CMP       A1, A2                ; [DPU_3_PIPE] |122|  ; [ORIG 16-BIT INS]
     531 00000100 D81E              BHI       ||$C$L6||             ; [DPU_3_PIPE] |122|  ; [ORIG 16-BIT INS]
     532                            ; BRANCHCC OCCURS {||$C$L6||}    ; [] |122| 
     533                    ;* --------------------------------------------------------------------------*
     534                            .dwpsn  file "../Tasks/Task_Speakerbuzz.c",line 127,column 3,is_stmt,isa 1
     535 00000102 4812              LDR       A1, $C$CON3           ; [DPU_3_PIPE] |127|  ; [ORIG 16-BIT INS]
     536 00000104 2103              MOVS      A2, #3                ; [DPU_3_PIPE] |127|  ; [ORIG 16-BIT INS]
     537                    $C$DW$35        .dwtag  DW_TAG_TI_branch
     538                            .dwattr $C$DW$35, DW_AT_low_pc(0x00)
     539                            .dwattr $C$DW$35, DW_AT_name("GPIOPinRead")
     540                            .dwattr $C$DW$35, DW_AT_TI_call
     541                    
     542 00000106 FFFEF7FF!         BL        GPIOPinRead           ; [DPU_3_PIPE] |127|  ; [KEEP 32-BIT INS]
     543                            ; CALL OCCURS {GPIOPinRead }     ; [] |127| 
     544 0000010a 9000              STR       A1, [SP, #0]          ; [DPU_3_PIPE] |127|  ; [ORIG 16-BIT INS]
     545                            .dwpsn  file "../Tasks/Task_Speakerbuzz.c",line 128,column 3,is_stmt,isa 1
     546 0000010c 9800              LDR       A1, [SP, #0]          ; [DPU_3_PIPE] |128|  ; [ORIG 16-BIT INS]
     547 0000010e 0003F080          EOR       A1, A1, #3            ; [DPU_3_PIPE] |128|  ; [KEEP 32-BIT INS]
     548 00000112 9000              STR       A1, [SP, #0]          ; [DPU_3_PIPE] |128|  ; [ORIG 16-BIT INS]
     549                            .dwpsn  file "../Tasks/Task_Speakerbuzz.c",line 129,column 9,is_stmt,isa 1
     550 00000114 480D              LDR       A1, $C$CON3           ; [DPU_3_PIPE] |129|  ; [ORIG 16-BIT INS]
TI ARM Assembler PC v15.12.1 Fri Feb 17 09:56:14 2017

Tools Copyright (c) 1996-2015 Texas Instruments Incorporated
Task_Speakerbuzz.asm                                                 PAGE   11

     551 00000116 2000F89D          LDRB      A3, [SP, #0]          ; [DPU_3_PIPE] |129|  ; [KEEP 32-BIT INS]
     552 0000011a 2103              MOVS      A2, #3                ; [DPU_3_PIPE] |129|  ; [ORIG 16-BIT INS]
     553                    $C$DW$36        .dwtag  DW_TAG_TI_branch
     554                            .dwattr $C$DW$36, DW_AT_low_pc(0x00)
     555                            .dwattr $C$DW$36, DW_AT_name("GPIOPinWrite")
     556                            .dwattr $C$DW$36, DW_AT_TI_call
     557                    
     558 0000011c FFFEF7FF!         BL        GPIOPinWrite          ; [DPU_3_PIPE] |129|  ; [KEEP 32-BIT INS]
     559                            ; CALL OCCURS {GPIOPinWrite }    ; [] |129| 
     560                            .dwpsn  file "../Tasks/Task_Speakerbuzz.c",line 132,column 4,is_stmt,isa 1
     561 00000120 4812              LDR       A1, $C$CON11          ; [DPU_3_PIPE] |132|  ; [ORIG 16-BIT INS]
     562 00000122 490C              LDR       A2, $C$CON5           ; [DPU_3_PIPE] |132|  ; [ORIG 16-BIT INS]
     563 00000124 4A0A              LDR       A3, $C$CON4           ; [DPU_3_PIPE] |132|  ; [ORIG 16-BIT INS]
     564 00000126 6800              LDR       A1, [A1, #0]          ; [DPU_3_PIPE] |132|  ; [ORIG 16-BIT INS]
     565 00000128 6809              LDR       A2, [A2, #0]          ; [DPU_3_PIPE] |132|  ; [ORIG 16-BIT INS]
     566 0000012a 0040              LSLS      A1, A1, #1            ; [DPU_3_PIPE] |132|  ; [ORIG 16-BIT INS]
     567 0000012c F0F0FBB1          UDIV      A1, A2, A1            ; [DPU_3_PIPE] |132|  ; [KEEP 32-BIT INS]
     568 00000130 6010              STR       A1, [A3, #0]          ; [DPU_3_PIPE] |132|  ; [ORIG 16-BIT INS]
     569                            .dwpsn  file "../Tasks/Task_Speakerbuzz.c",line 138,column 9,is_stmt,isa 1
     570 00000132 490A              LDR       A2, $C$CON7           ; [DPU_3_PIPE] |138|  ; [ORIG 16-BIT INS]
     571 00000134 4806              LDR       A1, $C$CON4           ; [DPU_3_PIPE] |138|  ; [ORIG 16-BIT INS]
     572 00000136 680A              LDR       A3, [A2, #0]          ; [DPU_3_PIPE] |138|  ; [ORIG 16-BIT INS]
     573 00000138 6800              LDR       A1, [A1, #0]          ; [DPU_3_PIPE] |138|  ; [ORIG 16-BIT INS]
     574 0000013a 4907              LDR       A2, $C$CON6           ; [DPU_3_PIPE] |138|  ; [ORIG 16-BIT INS]
     575 0000013c 1880              ADDS      A1, A1, A3            ; [DPU_3_PIPE] |138|  ; [ORIG 16-BIT INS]
     576 0000013e 6008              STR       A1, [A2, #0]          ; [DPU_3_PIPE] |138|  ; [ORIG 16-BIT INS]
     577                            .dwpsn  file "../Tasks/Task_Speakerbuzz.c",line 141,column 1,is_stmt,isa 1
     578                    ;* --------------------------------------------------------------------------*
     579                    ||$C$L6||:    
     580                    $C$DW$37        .dwtag  DW_TAG_TI_branch
     581                            .dwattr $C$DW$37, DW_AT_low_pc(0x00)
     582                            .dwattr $C$DW$37, DW_AT_TI_return
     583                    
     584 00000140 BD08              POP       {A4, PC}              ; [DPU_3_PIPE]  ; [ORIG 16-BIT INS]
     585                            .dwcfi  cfa_offset, 0
     586                            ; BRANCH OCCURS                  ; [] 
     587                            .dwattr $C$DW$29, DW_AT_TI_end_file("../Tasks/Task_Speakerbuzz.c")
     588                            .dwattr $C$DW$29, DW_AT_TI_end_line(0x8d)
     589                            .dwattr $C$DW$29, DW_AT_TI_end_column(0x01)
     590                            .dwendentry
     591                            .dwendtag $C$DW$29
     592                    
     593                    ;******************************************************************************
     594                    ;* CONSTANT TABLE                                                             *
     595                    ;******************************************************************************
     596 00000142                   .sect   ".text"
     597                            .align  4
     598 00000142 000046C0! ||$C$CON1||:    .bits   Task_Speakerbuzz_Initialized,32
         00000146 00000000 
     599                            .align  4
     600 00000146 00400000  ||$C$CON2||:    .bits   536870976,32
         0000014a 00002000 
     601                            .align  4
     602 0000014a 70002000  ||$C$CON3||:    .bits   1073901568,32
         0000014e 00004002 
TI ARM Assembler PC v15.12.1 Fri Feb 17 09:56:14 2017

Tools Copyright (c) 1996-2015 Texas Instruments Incorporated
Task_Speakerbuzz.asm                                                 PAGE   12

     603                            .align  4
     604 0000014e 00004002! ||$C$CON4||:    .bits   Task_Speakerbuzz_DeltaExecute,32
         00000152 00000000 
     605                            .align  4
     606 00000152 00000000! ||$C$CON5||:    .bits   SysTickFrequency_Nbr,32
         00000156 00000000 
     607                            .align  4
     608 00000156 00000000! ||$C$CON6||:    .bits   Task_Speakerbuzz_NextExecute,32
         0000015a 00000000 
     609                            .align  4
     610 0000015a 00000000! ||$C$CON7||:    .bits   SysTickCount_Nbr,32
         0000015e 00000000 
     611                            .align  4
     612 0000015e 00000000! ||$C$CON8||:    .bits   switchDelta,32
         00000162 00000000 
     613                            .align  4
     614 00000162 00000000! ||$C$CON9||:    .bits   switchExecute,32
         00000166 00000000 
     615                            .align  4
     616 00000166 00000000! ||$C$CON10||:   .bits   HighNote,32
         0000016a 00000000 
     617                            .align  4
     618 0000016a 00000000! ||$C$CON11||:   .bits   tone,32
         0000016e 00000000 
     619                            .align  4
     620 0000016e 00000000! ||$C$CON12||:   .bits   intro,32
         00000172 00000000 
     621                            .align  4
     622 00000172 00000000! ||$C$CON13||:   .bits   verse1,32
         00000176 00000000 
     623                    ;*****************************************************************************
     624                    ;* UNDEFINED EXTERNAL REFERENCES                                             *
     625                    ;*****************************************************************************
     626                            .global SysCtlPeripheralEnable
     627                            .global GPIOPadConfigSet
     628                            .global GPIOPinRead
     629                            .global GPIOPinWrite
     630                            .global GPIOPinTypeGPIOOutput
     631                            .global SysTickFrequency_Nbr
     632                            .global SysTickCount_Nbr
     633                    
     634                    ;******************************************************************************
     635                    ;* BUILD ATTRIBUTES                                                           *
     636                    ;******************************************************************************
     637                            .battr "aeabi", Tag_File, 1, Tag_ABI_PCS_wchar_t(2)
     638                            .battr "aeabi", Tag_File, 1, Tag_ABI_FP_rounding(0)
     639                            .battr "aeabi", Tag_File, 1, Tag_ABI_FP_denormal(0)
     640                            .battr "aeabi", Tag_File, 1, Tag_ABI_FP_exceptions(0)
     641                            .battr "aeabi", Tag_File, 1, Tag_ABI_FP_number_model(1)
     642                            .battr "aeabi", Tag_File, 1, Tag_ABI_enum_size(0)
     643                            .battr "aeabi", Tag_File, 1, Tag_ABI_optimization_goals(5)
     644                            .battr "aeabi", Tag_File, 1, Tag_ABI_FP_optimization_goals(0)
     645                            .battr "TI", Tag_File, 1, Tag_Bitfield_layout(2)
     646                            .battr "TI", Tag_File, 1, Tag_FP_interface(1)
     647                    
TI ARM Assembler PC v15.12.1 Fri Feb 17 09:56:14 2017

Tools Copyright (c) 1996-2015 Texas Instruments Incorporated
Task_Speakerbuzz.asm                                                 PAGE   13

     648                    ;******************************************************************************
     649                    ;* TYPE INFORMATION                                                           *
     650                    ;******************************************************************************
     651                    $C$DW$T$2       .dwtag  DW_TAG_unspecified_type
     652                            .dwattr $C$DW$T$2, DW_AT_name("void")
     653                    
     654                    $C$DW$T$3       .dwtag  DW_TAG_pointer_type
     655                            .dwattr $C$DW$T$3, DW_AT_type(*$C$DW$T$2)
     656                            .dwattr $C$DW$T$3, DW_AT_address_class(0x20)
     657                    
     658                    $C$DW$T$4       .dwtag  DW_TAG_base_type
     659                            .dwattr $C$DW$T$4, DW_AT_encoding(DW_ATE_boolean)
     660                            .dwattr $C$DW$T$4, DW_AT_name("bool")
     661                            .dwattr $C$DW$T$4, DW_AT_byte_size(0x01)
     662                    
     663                    $C$DW$T$5       .dwtag  DW_TAG_base_type
     664                            .dwattr $C$DW$T$5, DW_AT_encoding(DW_ATE_signed_char)
     665                            .dwattr $C$DW$T$5, DW_AT_name("signed char")
     666                            .dwattr $C$DW$T$5, DW_AT_byte_size(0x01)
     667                    
     668                    $C$DW$T$29      .dwtag  DW_TAG_typedef
     669                            .dwattr $C$DW$T$29, DW_AT_name("int8_t")
     670                            .dwattr $C$DW$T$29, DW_AT_type(*$C$DW$T$5)
     671                            .dwattr $C$DW$T$29, DW_AT_language(DW_LANG_C)
     672                            .dwattr $C$DW$T$29, DW_AT_decl_file("C:/TI_CodeComposer/ccsv6/tools/compiler/ti-cgt-arm_15.12.
     673                            .dwattr $C$DW$T$29, DW_AT_decl_line(0x2a)
     674                            .dwattr $C$DW$T$29, DW_AT_decl_column(0x1d)
     675                    
     676                    $C$DW$T$30      .dwtag  DW_TAG_typedef
     677                            .dwattr $C$DW$T$30, DW_AT_name("int_least8_t")
     678                            .dwattr $C$DW$T$30, DW_AT_type(*$C$DW$T$29)
     679                            .dwattr $C$DW$T$30, DW_AT_language(DW_LANG_C)
     680                            .dwattr $C$DW$T$30, DW_AT_decl_file("C:/TI_CodeComposer/ccsv6/tools/compiler/ti-cgt-arm_15.12.
     681                            .dwattr $C$DW$T$30, DW_AT_decl_line(0x37)
     682                            .dwattr $C$DW$T$30, DW_AT_decl_column(0x17)
     683                    
     684                    $C$DW$T$6       .dwtag  DW_TAG_base_type
     685                            .dwattr $C$DW$T$6, DW_AT_encoding(DW_ATE_unsigned_char)
     686                            .dwattr $C$DW$T$6, DW_AT_name("unsigned char")
     687                            .dwattr $C$DW$T$6, DW_AT_byte_size(0x01)
     688                    
     689                    $C$DW$T$31      .dwtag  DW_TAG_typedef
     690                            .dwattr $C$DW$T$31, DW_AT_name("tBoolean")
     691                            .dwattr $C$DW$T$31, DW_AT_type(*$C$DW$T$6)
     692                            .dwattr $C$DW$T$31, DW_AT_language(DW_LANG_C)
     693                            .dwattr $C$DW$T$31, DW_AT_decl_file("C:/TI_CodeComposer/StellarisWare-LM3S1968/inc/hw_types.h"
     694                            .dwattr $C$DW$T$31, DW_AT_decl_line(0x30)
     695                            .dwattr $C$DW$T$31, DW_AT_decl_column(0x17)
     696                    
     697                    $C$DW$T$32      .dwtag  DW_TAG_typedef
     698                            .dwattr $C$DW$T$32, DW_AT_name("uint8_t")
     699                            .dwattr $C$DW$T$32, DW_AT_type(*$C$DW$T$6)
     700                            .dwattr $C$DW$T$32, DW_AT_language(DW_LANG_C)
     701                            .dwattr $C$DW$T$32, DW_AT_decl_file("C:/TI_CodeComposer/ccsv6/tools/compiler/ti-cgt-arm_15.12.
     702                            .dwattr $C$DW$T$32, DW_AT_decl_line(0x2b)
TI ARM Assembler PC v15.12.1 Fri Feb 17 09:56:14 2017

Tools Copyright (c) 1996-2015 Texas Instruments Incorporated
Task_Speakerbuzz.asm                                                 PAGE   14

     703                            .dwattr $C$DW$T$32, DW_AT_decl_column(0x1c)
     704                    
     705                    $C$DW$T$33      .dwtag  DW_TAG_typedef
     706                            .dwattr $C$DW$T$33, DW_AT_name("uint_least8_t")
     707                            .dwattr $C$DW$T$33, DW_AT_type(*$C$DW$T$32)
     708                            .dwattr $C$DW$T$33, DW_AT_language(DW_LANG_C)
     709                            .dwattr $C$DW$T$33, DW_AT_decl_file("C:/TI_CodeComposer/ccsv6/tools/compiler/ti-cgt-arm_15.12.
     710                            .dwattr $C$DW$T$33, DW_AT_decl_line(0x38)
     711                            .dwattr $C$DW$T$33, DW_AT_decl_column(0x16)
     712                    
     713                    $C$DW$T$7       .dwtag  DW_TAG_base_type
     714                            .dwattr $C$DW$T$7, DW_AT_encoding(DW_ATE_signed_char)
     715                            .dwattr $C$DW$T$7, DW_AT_name("wchar_t")
     716                            .dwattr $C$DW$T$7, DW_AT_byte_size(0x02)
     717                    
     718                    $C$DW$T$8       .dwtag  DW_TAG_base_type
     719                            .dwattr $C$DW$T$8, DW_AT_encoding(DW_ATE_signed)
     720                            .dwattr $C$DW$T$8, DW_AT_name("short")
     721                            .dwattr $C$DW$T$8, DW_AT_byte_size(0x02)
     722                    
     723                    $C$DW$T$34      .dwtag  DW_TAG_typedef
     724                            .dwattr $C$DW$T$34, DW_AT_name("int16_t")
     725                            .dwattr $C$DW$T$34, DW_AT_type(*$C$DW$T$8)
     726                            .dwattr $C$DW$T$34, DW_AT_language(DW_LANG_C)
     727                            .dwattr $C$DW$T$34, DW_AT_decl_file("C:/TI_CodeComposer/ccsv6/tools/compiler/ti-cgt-arm_15.12.
     728                            .dwattr $C$DW$T$34, DW_AT_decl_line(0x2c)
     729                            .dwattr $C$DW$T$34, DW_AT_decl_column(0x1d)
     730                    
     731                    $C$DW$T$35      .dwtag  DW_TAG_typedef
     732                            .dwattr $C$DW$T$35, DW_AT_name("int_least16_t")
     733                            .dwattr $C$DW$T$35, DW_AT_type(*$C$DW$T$34)
     734                            .dwattr $C$DW$T$35, DW_AT_language(DW_LANG_C)
     735                            .dwattr $C$DW$T$35, DW_AT_decl_file("C:/TI_CodeComposer/ccsv6/tools/compiler/ti-cgt-arm_15.12.
     736                            .dwattr $C$DW$T$35, DW_AT_decl_line(0x3a)
     737                            .dwattr $C$DW$T$35, DW_AT_decl_column(0x17)
     738                    
     739                    $C$DW$T$9       .dwtag  DW_TAG_base_type
     740                            .dwattr $C$DW$T$9, DW_AT_encoding(DW_ATE_unsigned)
     741                            .dwattr $C$DW$T$9, DW_AT_name("unsigned short")
     742                            .dwattr $C$DW$T$9, DW_AT_byte_size(0x02)
     743                    
     744                    $C$DW$T$36      .dwtag  DW_TAG_typedef
     745                            .dwattr $C$DW$T$36, DW_AT_name("uint16_t")
     746                            .dwattr $C$DW$T$36, DW_AT_type(*$C$DW$T$9)
     747                            .dwattr $C$DW$T$36, DW_AT_language(DW_LANG_C)
     748                            .dwattr $C$DW$T$36, DW_AT_decl_file("C:/TI_CodeComposer/ccsv6/tools/compiler/ti-cgt-arm_15.12.
     749                            .dwattr $C$DW$T$36, DW_AT_decl_line(0x2d)
     750                            .dwattr $C$DW$T$36, DW_AT_decl_column(0x1c)
     751                    
     752                    $C$DW$T$37      .dwtag  DW_TAG_typedef
     753                            .dwattr $C$DW$T$37, DW_AT_name("uint_least16_t")
     754                            .dwattr $C$DW$T$37, DW_AT_type(*$C$DW$T$36)
     755                            .dwattr $C$DW$T$37, DW_AT_language(DW_LANG_C)
     756                            .dwattr $C$DW$T$37, DW_AT_decl_file("C:/TI_CodeComposer/ccsv6/tools/compiler/ti-cgt-arm_15.12.
     757                            .dwattr $C$DW$T$37, DW_AT_decl_line(0x3b)
TI ARM Assembler PC v15.12.1 Fri Feb 17 09:56:14 2017

Tools Copyright (c) 1996-2015 Texas Instruments Incorporated
Task_Speakerbuzz.asm                                                 PAGE   15

     758                            .dwattr $C$DW$T$37, DW_AT_decl_column(0x16)
     759                    
     760                    $C$DW$T$38      .dwtag  DW_TAG_typedef
     761                            .dwattr $C$DW$T$38, DW_AT_name("wchar_t")
     762                            .dwattr $C$DW$T$38, DW_AT_type(*$C$DW$T$9)
     763                            .dwattr $C$DW$T$38, DW_AT_language(DW_LANG_C)
     764                            .dwattr $C$DW$T$38, DW_AT_decl_file("C:/TI_CodeComposer/ccsv6/tools/compiler/ti-cgt-arm_15.12.
     765                            .dwattr $C$DW$T$38, DW_AT_decl_line(0x41)
     766                            .dwattr $C$DW$T$38, DW_AT_decl_column(0x1a)
     767                    
     768                    $C$DW$T$10      .dwtag  DW_TAG_base_type
     769                            .dwattr $C$DW$T$10, DW_AT_encoding(DW_ATE_signed)
     770                            .dwattr $C$DW$T$10, DW_AT_name("int")
     771                            .dwattr $C$DW$T$10, DW_AT_byte_size(0x04)
     772                    
     773                    
     774                    $C$DW$T$39      .dwtag  DW_TAG_array_type
     775                            .dwattr $C$DW$T$39, DW_AT_type(*$C$DW$T$10)
     776                            .dwattr $C$DW$T$39, DW_AT_language(DW_LANG_C)
     777                            .dwattr $C$DW$T$39, DW_AT_byte_size(0x38)
     778                    $C$DW$38        .dwtag  DW_TAG_subrange_type
     779                            .dwattr $C$DW$38, DW_AT_upper_bound(0x0d)
     780                    
     781                            .dwendtag $C$DW$T$39
     782                    
     783                    
     784                    $C$DW$T$40      .dwtag  DW_TAG_array_type
     785                            .dwattr $C$DW$T$40, DW_AT_type(*$C$DW$T$10)
     786                            .dwattr $C$DW$T$40, DW_AT_language(DW_LANG_C)
     787                            .dwattr $C$DW$T$40, DW_AT_byte_size(0x8c)
     788                    $C$DW$39        .dwtag  DW_TAG_subrange_type
     789                            .dwattr $C$DW$39, DW_AT_upper_bound(0x22)
     790                    
     791                            .dwendtag $C$DW$T$40
     792                    
     793                    $C$DW$T$42      .dwtag  DW_TAG_typedef
     794                            .dwattr $C$DW$T$42, DW_AT_name("int32_t")
     795                            .dwattr $C$DW$T$42, DW_AT_type(*$C$DW$T$10)
     796                            .dwattr $C$DW$T$42, DW_AT_language(DW_LANG_C)
     797                            .dwattr $C$DW$T$42, DW_AT_decl_file("C:/TI_CodeComposer/ccsv6/tools/compiler/ti-cgt-arm_15.12.
     798                            .dwattr $C$DW$T$42, DW_AT_decl_line(0x2e)
     799                            .dwattr $C$DW$T$42, DW_AT_decl_column(0x1d)
     800                    
     801                    $C$DW$T$43      .dwtag  DW_TAG_typedef
     802                            .dwattr $C$DW$T$43, DW_AT_name("int_fast16_t")
     803                            .dwattr $C$DW$T$43, DW_AT_type(*$C$DW$T$42)
     804                            .dwattr $C$DW$T$43, DW_AT_language(DW_LANG_C)
     805                            .dwattr $C$DW$T$43, DW_AT_decl_file("C:/TI_CodeComposer/ccsv6/tools/compiler/ti-cgt-arm_15.12.
     806                            .dwattr $C$DW$T$43, DW_AT_decl_line(0x47)
     807                            .dwattr $C$DW$T$43, DW_AT_decl_column(0x17)
     808                    
     809                    $C$DW$T$44      .dwtag  DW_TAG_typedef
     810                            .dwattr $C$DW$T$44, DW_AT_name("int_fast32_t")
     811                            .dwattr $C$DW$T$44, DW_AT_type(*$C$DW$T$42)
     812                            .dwattr $C$DW$T$44, DW_AT_language(DW_LANG_C)
TI ARM Assembler PC v15.12.1 Fri Feb 17 09:56:14 2017

Tools Copyright (c) 1996-2015 Texas Instruments Incorporated
Task_Speakerbuzz.asm                                                 PAGE   16

     813                            .dwattr $C$DW$T$44, DW_AT_decl_file("C:/TI_CodeComposer/ccsv6/tools/compiler/ti-cgt-arm_15.12.
     814                            .dwattr $C$DW$T$44, DW_AT_decl_line(0x4a)
     815                            .dwattr $C$DW$T$44, DW_AT_decl_column(0x17)
     816                    
     817                    $C$DW$T$45      .dwtag  DW_TAG_typedef
     818                            .dwattr $C$DW$T$45, DW_AT_name("int_fast8_t")
     819                            .dwattr $C$DW$T$45, DW_AT_type(*$C$DW$T$42)
     820                            .dwattr $C$DW$T$45, DW_AT_language(DW_LANG_C)
     821                            .dwattr $C$DW$T$45, DW_AT_decl_file("C:/TI_CodeComposer/ccsv6/tools/compiler/ti-cgt-arm_15.12.
     822                            .dwattr $C$DW$T$45, DW_AT_decl_line(0x45)
     823                            .dwattr $C$DW$T$45, DW_AT_decl_column(0x17)
     824                    
     825                    $C$DW$T$46      .dwtag  DW_TAG_typedef
     826                            .dwattr $C$DW$T$46, DW_AT_name("int_least32_t")
     827                            .dwattr $C$DW$T$46, DW_AT_type(*$C$DW$T$42)
     828                            .dwattr $C$DW$T$46, DW_AT_language(DW_LANG_C)
     829                            .dwattr $C$DW$T$46, DW_AT_decl_file("C:/TI_CodeComposer/ccsv6/tools/compiler/ti-cgt-arm_15.12.
     830                            .dwattr $C$DW$T$46, DW_AT_decl_line(0x3c)
     831                            .dwattr $C$DW$T$46, DW_AT_decl_column(0x17)
     832                    
     833                    $C$DW$T$47      .dwtag  DW_TAG_typedef
     834                            .dwattr $C$DW$T$47, DW_AT_name("intptr_t")
     835                            .dwattr $C$DW$T$47, DW_AT_type(*$C$DW$T$10)
     836                            .dwattr $C$DW$T$47, DW_AT_language(DW_LANG_C)
     837                            .dwattr $C$DW$T$47, DW_AT_decl_file("C:/TI_CodeComposer/ccsv6/tools/compiler/ti-cgt-arm_15.12.
     838                            .dwattr $C$DW$T$47, DW_AT_decl_line(0x52)
     839                            .dwattr $C$DW$T$47, DW_AT_decl_column(0x1a)
     840                    
     841                    $C$DW$T$48      .dwtag  DW_TAG_typedef
     842                            .dwattr $C$DW$T$48, DW_AT_name("ptrdiff_t")
     843                            .dwattr $C$DW$T$48, DW_AT_type(*$C$DW$T$10)
     844                            .dwattr $C$DW$T$48, DW_AT_language(DW_LANG_C)
     845                            .dwattr $C$DW$T$48, DW_AT_decl_file("C:/TI_CodeComposer/ccsv6/tools/compiler/ti-cgt-arm_15.12.
     846                            .dwattr $C$DW$T$48, DW_AT_decl_line(0x36)
     847                            .dwattr $C$DW$T$48, DW_AT_decl_column(0x1c)
     848                    
     849                    $C$DW$T$11      .dwtag  DW_TAG_base_type
     850                            .dwattr $C$DW$T$11, DW_AT_encoding(DW_ATE_unsigned)
     851                            .dwattr $C$DW$T$11, DW_AT_name("unsigned int")
     852                            .dwattr $C$DW$T$11, DW_AT_byte_size(0x04)
     853                    
     854                    $C$DW$T$49      .dwtag  DW_TAG_typedef
     855                            .dwattr $C$DW$T$49, DW_AT_name("size_t")
     856                            .dwattr $C$DW$T$49, DW_AT_type(*$C$DW$T$11)
     857                            .dwattr $C$DW$T$49, DW_AT_language(DW_LANG_C)
     858                            .dwattr $C$DW$T$49, DW_AT_decl_file("C:/TI_CodeComposer/ccsv6/tools/compiler/ti-cgt-arm_15.12.
     859                            .dwattr $C$DW$T$49, DW_AT_decl_line(0x3a)
     860                            .dwattr $C$DW$T$49, DW_AT_decl_column(0x19)
     861                    
     862                    $C$DW$T$50      .dwtag  DW_TAG_typedef
     863                            .dwattr $C$DW$T$50, DW_AT_name("uint32_t")
     864                            .dwattr $C$DW$T$50, DW_AT_type(*$C$DW$T$11)
     865                            .dwattr $C$DW$T$50, DW_AT_language(DW_LANG_C)
     866                            .dwattr $C$DW$T$50, DW_AT_decl_file("C:/TI_CodeComposer/ccsv6/tools/compiler/ti-cgt-arm_15.12.
     867                            .dwattr $C$DW$T$50, DW_AT_decl_line(0x2f)
TI ARM Assembler PC v15.12.1 Fri Feb 17 09:56:14 2017

Tools Copyright (c) 1996-2015 Texas Instruments Incorporated
Task_Speakerbuzz.asm                                                 PAGE   17

     868                            .dwattr $C$DW$T$50, DW_AT_decl_column(0x1c)
     869                    
     870                    $C$DW$T$51      .dwtag  DW_TAG_typedef
     871                            .dwattr $C$DW$T$51, DW_AT_name("uint_fast16_t")
     872                            .dwattr $C$DW$T$51, DW_AT_type(*$C$DW$T$50)
     873                            .dwattr $C$DW$T$51, DW_AT_language(DW_LANG_C)
     874                            .dwattr $C$DW$T$51, DW_AT_decl_file("C:/TI_CodeComposer/ccsv6/tools/compiler/ti-cgt-arm_15.12.
     875                            .dwattr $C$DW$T$51, DW_AT_decl_line(0x48)
     876                            .dwattr $C$DW$T$51, DW_AT_decl_column(0x16)
     877                    
     878                    $C$DW$T$52      .dwtag  DW_TAG_typedef
     879                            .dwattr $C$DW$T$52, DW_AT_name("uint_fast32_t")
     880                            .dwattr $C$DW$T$52, DW_AT_type(*$C$DW$T$50)
     881                            .dwattr $C$DW$T$52, DW_AT_language(DW_LANG_C)
     882                            .dwattr $C$DW$T$52, DW_AT_decl_file("C:/TI_CodeComposer/ccsv6/tools/compiler/ti-cgt-arm_15.12.
     883                            .dwattr $C$DW$T$52, DW_AT_decl_line(0x4b)
     884                            .dwattr $C$DW$T$52, DW_AT_decl_column(0x16)
     885                    
     886                    $C$DW$T$53      .dwtag  DW_TAG_typedef
     887                            .dwattr $C$DW$T$53, DW_AT_name("uint_fast8_t")
     888                            .dwattr $C$DW$T$53, DW_AT_type(*$C$DW$T$50)
     889                            .dwattr $C$DW$T$53, DW_AT_language(DW_LANG_C)
     890                            .dwattr $C$DW$T$53, DW_AT_decl_file("C:/TI_CodeComposer/ccsv6/tools/compiler/ti-cgt-arm_15.12.
     891                            .dwattr $C$DW$T$53, DW_AT_decl_line(0x46)
     892                            .dwattr $C$DW$T$53, DW_AT_decl_column(0x16)
     893                    
     894                    $C$DW$T$54      .dwtag  DW_TAG_typedef
     895                            .dwattr $C$DW$T$54, DW_AT_name("uint_least32_t")
     896                            .dwattr $C$DW$T$54, DW_AT_type(*$C$DW$T$50)
     897                            .dwattr $C$DW$T$54, DW_AT_language(DW_LANG_C)
     898                            .dwattr $C$DW$T$54, DW_AT_decl_file("C:/TI_CodeComposer/ccsv6/tools/compiler/ti-cgt-arm_15.12.
     899                            .dwattr $C$DW$T$54, DW_AT_decl_line(0x3d)
     900                            .dwattr $C$DW$T$54, DW_AT_decl_column(0x16)
     901                    
     902                    $C$DW$T$55      .dwtag  DW_TAG_typedef
     903                            .dwattr $C$DW$T$55, DW_AT_name("uintptr_t")
     904                            .dwattr $C$DW$T$55, DW_AT_type(*$C$DW$T$11)
     905                            .dwattr $C$DW$T$55, DW_AT_language(DW_LANG_C)
     906                            .dwattr $C$DW$T$55, DW_AT_decl_file("C:/TI_CodeComposer/ccsv6/tools/compiler/ti-cgt-arm_15.12.
     907                            .dwattr $C$DW$T$55, DW_AT_decl_line(0x53)
     908                            .dwattr $C$DW$T$55, DW_AT_decl_column(0x1a)
     909                    
     910                    $C$DW$T$12      .dwtag  DW_TAG_base_type
     911                            .dwattr $C$DW$T$12, DW_AT_encoding(DW_ATE_signed)
     912                            .dwattr $C$DW$T$12, DW_AT_name("long")
     913                            .dwattr $C$DW$T$12, DW_AT_byte_size(0x04)
     914                    
     915                    $C$DW$T$13      .dwtag  DW_TAG_base_type
     916                            .dwattr $C$DW$T$13, DW_AT_encoding(DW_ATE_unsigned)
     917                            .dwattr $C$DW$T$13, DW_AT_name("unsigned long")
     918                            .dwattr $C$DW$T$13, DW_AT_byte_size(0x04)
     919                    
     920                    $C$DW$T$14      .dwtag  DW_TAG_base_type
     921                            .dwattr $C$DW$T$14, DW_AT_encoding(DW_ATE_signed)
     922                            .dwattr $C$DW$T$14, DW_AT_name("long long")
TI ARM Assembler PC v15.12.1 Fri Feb 17 09:56:14 2017

Tools Copyright (c) 1996-2015 Texas Instruments Incorporated
Task_Speakerbuzz.asm                                                 PAGE   18

     923                            .dwattr $C$DW$T$14, DW_AT_byte_size(0x08)
     924                    
     925                    $C$DW$T$58      .dwtag  DW_TAG_typedef
     926                            .dwattr $C$DW$T$58, DW_AT_name("int64_t")
     927                            .dwattr $C$DW$T$58, DW_AT_type(*$C$DW$T$14)
     928                            .dwattr $C$DW$T$58, DW_AT_language(DW_LANG_C)
     929                            .dwattr $C$DW$T$58, DW_AT_decl_file("C:/TI_CodeComposer/ccsv6/tools/compiler/ti-cgt-arm_15.12.
     930                            .dwattr $C$DW$T$58, DW_AT_decl_line(0x32)
     931                            .dwattr $C$DW$T$58, DW_AT_decl_column(0x21)
     932                    
     933                    $C$DW$T$59      .dwtag  DW_TAG_typedef
     934                            .dwattr $C$DW$T$59, DW_AT_name("int_fast64_t")
     935                            .dwattr $C$DW$T$59, DW_AT_type(*$C$DW$T$58)
     936                            .dwattr $C$DW$T$59, DW_AT_language(DW_LANG_C)
     937                            .dwattr $C$DW$T$59, DW_AT_decl_file("C:/TI_CodeComposer/ccsv6/tools/compiler/ti-cgt-arm_15.12.
     938                            .dwattr $C$DW$T$59, DW_AT_decl_line(0x4e)
     939                            .dwattr $C$DW$T$59, DW_AT_decl_column(0x17)
     940                    
     941                    $C$DW$T$60      .dwtag  DW_TAG_typedef
     942                            .dwattr $C$DW$T$60, DW_AT_name("int_least64_t")
     943                            .dwattr $C$DW$T$60, DW_AT_type(*$C$DW$T$58)
     944                            .dwattr $C$DW$T$60, DW_AT_language(DW_LANG_C)
     945                            .dwattr $C$DW$T$60, DW_AT_decl_file("C:/TI_CodeComposer/ccsv6/tools/compiler/ti-cgt-arm_15.12.
     946                            .dwattr $C$DW$T$60, DW_AT_decl_line(0x40)
     947                            .dwattr $C$DW$T$60, DW_AT_decl_column(0x17)
     948                    
     949                    $C$DW$T$61      .dwtag  DW_TAG_typedef
     950                            .dwattr $C$DW$T$61, DW_AT_name("intmax_t")
     951                            .dwattr $C$DW$T$61, DW_AT_type(*$C$DW$T$14)
     952                            .dwattr $C$DW$T$61, DW_AT_language(DW_LANG_C)
     953                            .dwattr $C$DW$T$61, DW_AT_decl_file("C:/TI_CodeComposer/ccsv6/tools/compiler/ti-cgt-arm_15.12.
     954                            .dwattr $C$DW$T$61, DW_AT_decl_line(0x56)
     955                            .dwattr $C$DW$T$61, DW_AT_decl_column(0x20)
     956                    
     957                    $C$DW$T$15      .dwtag  DW_TAG_base_type
     958                            .dwattr $C$DW$T$15, DW_AT_encoding(DW_ATE_unsigned)
     959                            .dwattr $C$DW$T$15, DW_AT_name("unsigned long long")
     960                            .dwattr $C$DW$T$15, DW_AT_byte_size(0x08)
     961                    
     962                    $C$DW$T$62      .dwtag  DW_TAG_typedef
     963                            .dwattr $C$DW$T$62, DW_AT_name("uint64_t")
     964                            .dwattr $C$DW$T$62, DW_AT_type(*$C$DW$T$15)
     965                            .dwattr $C$DW$T$62, DW_AT_language(DW_LANG_C)
     966                            .dwattr $C$DW$T$62, DW_AT_decl_file("C:/TI_CodeComposer/ccsv6/tools/compiler/ti-cgt-arm_15.12.
     967                            .dwattr $C$DW$T$62, DW_AT_decl_line(0x33)
     968                            .dwattr $C$DW$T$62, DW_AT_decl_column(0x20)
     969                    
     970                    $C$DW$T$63      .dwtag  DW_TAG_typedef
     971                            .dwattr $C$DW$T$63, DW_AT_name("uint_fast64_t")
     972                            .dwattr $C$DW$T$63, DW_AT_type(*$C$DW$T$62)
     973                            .dwattr $C$DW$T$63, DW_AT_language(DW_LANG_C)
     974                            .dwattr $C$DW$T$63, DW_AT_decl_file("C:/TI_CodeComposer/ccsv6/tools/compiler/ti-cgt-arm_15.12.
     975                            .dwattr $C$DW$T$63, DW_AT_decl_line(0x4f)
     976                            .dwattr $C$DW$T$63, DW_AT_decl_column(0x16)
     977                    
TI ARM Assembler PC v15.12.1 Fri Feb 17 09:56:14 2017

Tools Copyright (c) 1996-2015 Texas Instruments Incorporated
Task_Speakerbuzz.asm                                                 PAGE   19

     978                    $C$DW$T$64      .dwtag  DW_TAG_typedef
     979                            .dwattr $C$DW$T$64, DW_AT_name("uint_least64_t")
     980                            .dwattr $C$DW$T$64, DW_AT_type(*$C$DW$T$62)
     981                            .dwattr $C$DW$T$64, DW_AT_language(DW_LANG_C)
     982                            .dwattr $C$DW$T$64, DW_AT_decl_file("C:/TI_CodeComposer/ccsv6/tools/compiler/ti-cgt-arm_15.12.
     983                            .dwattr $C$DW$T$64, DW_AT_decl_line(0x41)
     984                            .dwattr $C$DW$T$64, DW_AT_decl_column(0x16)
     985                    
     986                    $C$DW$T$65      .dwtag  DW_TAG_typedef
     987                            .dwattr $C$DW$T$65, DW_AT_name("uintmax_t")
     988                            .dwattr $C$DW$T$65, DW_AT_type(*$C$DW$T$15)
     989                            .dwattr $C$DW$T$65, DW_AT_language(DW_LANG_C)
     990                            .dwattr $C$DW$T$65, DW_AT_decl_file("C:/TI_CodeComposer/ccsv6/tools/compiler/ti-cgt-arm_15.12.
     991                            .dwattr $C$DW$T$65, DW_AT_decl_line(0x57)
     992                            .dwattr $C$DW$T$65, DW_AT_decl_column(0x20)
     993                    
     994                    $C$DW$T$16      .dwtag  DW_TAG_base_type
     995                            .dwattr $C$DW$T$16, DW_AT_encoding(DW_ATE_float)
     996                            .dwattr $C$DW$T$16, DW_AT_name("float")
     997                            .dwattr $C$DW$T$16, DW_AT_byte_size(0x04)
     998                    
     999                    $C$DW$T$17      .dwtag  DW_TAG_base_type
    1000                            .dwattr $C$DW$T$17, DW_AT_encoding(DW_ATE_float)
    1001                            .dwattr $C$DW$T$17, DW_AT_name("double")
    1002                            .dwattr $C$DW$T$17, DW_AT_byte_size(0x08)
    1003                    
    1004                    $C$DW$T$18      .dwtag  DW_TAG_base_type
    1005                            .dwattr $C$DW$T$18, DW_AT_encoding(DW_ATE_float)
    1006                            .dwattr $C$DW$T$18, DW_AT_name("long double")
    1007                            .dwattr $C$DW$T$18, DW_AT_byte_size(0x08)
    1008                    
    1009                    $C$DW$T$66      .dwtag  DW_TAG_base_type
    1010                            .dwattr $C$DW$T$66, DW_AT_encoding(DW_ATE_unsigned_char)
    1011                            .dwattr $C$DW$T$66, DW_AT_name("unsigned char")
    1012                            .dwattr $C$DW$T$66, DW_AT_byte_size(0x01)
    1013                    
    1014                    
    1015                    $C$DW$T$19      .dwtag  DW_TAG_structure_type
    1016                            .dwattr $C$DW$T$19, DW_AT_name("__va_list")
    1017                            .dwattr $C$DW$T$19, DW_AT_byte_size(0x04)
    1018                    $C$DW$40        .dwtag  DW_TAG_member
    1019                            .dwattr $C$DW$40, DW_AT_type(*$C$DW$T$3)
    1020                            .dwattr $C$DW$40, DW_AT_name("__ap")
    1021                            .dwattr $C$DW$40, DW_AT_TI_symbol_name("__ap")
    1022                            .dwattr $C$DW$40, DW_AT_data_member_location[DW_OP_plus_uconst 0x0]
    1023                            .dwattr $C$DW$40, DW_AT_accessibility(DW_ACCESS_public)
    1024                            .dwattr $C$DW$40, DW_AT_decl_file("C:/TI_CodeComposer/ccsv6/tools/compiler/ti-cgt-arm_15.12.1.
    1025                            .dwattr $C$DW$40, DW_AT_decl_line(0x38)
    1026                            .dwattr $C$DW$40, DW_AT_decl_column(0x0c)
    1027                    
    1028                            .dwattr $C$DW$T$19, DW_AT_decl_file("C:/TI_CodeComposer/ccsv6/tools/compiler/ti-cgt-arm_15.12.
    1029                            .dwattr $C$DW$T$19, DW_AT_decl_line(0x37)
    1030                            .dwattr $C$DW$T$19, DW_AT_decl_column(0x10)
    1031                            .dwendtag $C$DW$T$19
    1032                    
TI ARM Assembler PC v15.12.1 Fri Feb 17 09:56:14 2017

Tools Copyright (c) 1996-2015 Texas Instruments Incorporated
Task_Speakerbuzz.asm                                                 PAGE   20

    1033                    $C$DW$T$67      .dwtag  DW_TAG_typedef
    1034                            .dwattr $C$DW$T$67, DW_AT_name("va_list")
    1035                            .dwattr $C$DW$T$67, DW_AT_type(*$C$DW$T$19)
    1036                            .dwattr $C$DW$T$67, DW_AT_language(DW_LANG_C)
    1037                            .dwattr $C$DW$T$67, DW_AT_decl_file("C:/TI_CodeComposer/ccsv6/tools/compiler/ti-cgt-arm_15.12.
    1038                            .dwattr $C$DW$T$67, DW_AT_decl_line(0x39)
    1039                            .dwattr $C$DW$T$67, DW_AT_decl_column(0x03)
    1040                    
    1041                            .dwattr $C$DW$CU, DW_AT_language(DW_LANG_C)
    1042                    
    1043                    ;***************************************************************
    1044                    ;* DWARF CIE ENTRIES                                           *
    1045                    ;***************************************************************
    1046                    
    1047                    $C$DW$CIE       .dwcie 14
    1048                            .dwcfi  cfa_register, 13
    1049                            .dwcfi  cfa_offset, 0
    1050                            .dwcfi  undefined, 0
    1051                            .dwcfi  undefined, 1
    1052                            .dwcfi  undefined, 2
    1053                            .dwcfi  undefined, 3
    1054                            .dwcfi  same_value, 4
    1055                            .dwcfi  same_value, 5
    1056                            .dwcfi  same_value, 6
    1057                            .dwcfi  same_value, 7
    1058                            .dwcfi  same_value, 8
    1059                            .dwcfi  same_value, 9
    1060                            .dwcfi  same_value, 10
    1061                            .dwcfi  same_value, 11
    1062                            .dwcfi  undefined, 12
    1063                            .dwcfi  undefined, 13
    1064                            .dwcfi  undefined, 14
    1065                            .dwcfi  undefined, 14
    1066                            .dwcfi  undefined, 7
    1067                            .dwendentry
    1068                            .dwendtag $C$DW$CU
    1069                    

--------------------------
Thumb2 Statistics
--------------------------
Number of Thumb2 ins converted to Thumb = 0 (0%)
Number of Thumb ins in input = 133 (89%)
Number of Thumb2 ins encoded as Thumb2 = 16 (100%)
Number of Thumb2 ins converted to 2 OPND Thumb = 1


No Assembly Errors, No Assembly Warnings
